target datalayout = "e-m:e-p270:32:32-p271:32:32-p272:64:64-i64:64-i128:128-f80:128-n8:16:32:64-S128"
target triple = "x86_64-pc-linux-gnu"

%struct.rb_data_type_struct = type { ptr, %struct.anon, ptr, ptr, i64 }
%struct.anon = type { ptr, ptr, ptr, ptr, [1 x ptr] }

@ossl_ssl_session_type = constant %struct.rb_data_type_struct { ptr @.str, %struct.anon { ptr null, ptr @ossl_ssl_session_free, ptr null, ptr null, [1 x ptr] zeroinitializer }, ptr null, ptr null, i64 33 }, align 8
@rb_eRuntimeError = external global i64, align 8
@.str.18 = private unnamed_addr constant [32 x i8] c"SSL Session wasn't initialized.\00", align 1
@rb_cTime = external global i64, align 8
@ossl_ssl_session_set_time.rbimpl_id = internal global i64 0, align 8
@.str.21 = private unnamed_addr constant [5 x i8] c"to_i\00", align 1

; Function Attrs: inlinehint nounwind sspstrong willreturn memory(none) uwtable
define internal i64 @rbimpl_fix2long_by_idiv(i64 noundef %0) #8 {
  %2 = alloca i64, align 8
  %3 = alloca i64, align 8
  %4 = alloca i64, align 8
  %5 = alloca i64, align 8
  store i64 %0, ptr %2, align 8, !tbaa !10
  call void @llvm.lifetime.start.p0(i64 8, ptr %3) #15
  %6 = load i64, ptr %2, align 8, !tbaa !10
  %7 = sub i64 %6, 1
  store i64 %7, ptr %3, align 8, !tbaa !10
  call void @llvm.lifetime.start.p0(i64 8, ptr %4) #15
  %8 = load i64, ptr %3, align 8, !tbaa !10
  %9 = sdiv i64 %8, 2
  store i64 %9, ptr %4, align 8, !tbaa !10
  call void @llvm.lifetime.start.p0(i64 8, ptr %5) #15
  %10 = load i64, ptr %4, align 8, !tbaa !10
  store i64 %10, ptr %5, align 8, !tbaa !10
  %11 = load i64, ptr %5, align 8, !tbaa !10
  call void @llvm.lifetime.end.p0(i64 8, ptr %5) #15
  call void @llvm.lifetime.end.p0(i64 8, ptr %4) #15
  call void @llvm.lifetime.end.p0(i64 8, ptr %3) #15
  ret i64 %11
}

; Function Attrs: inlinehint nounwind sspstrong willreturn memory(none) uwtable
define internal i64 @rbimpl_fix2long_by_shift(i64 noundef %0) #8 {
  %2 = alloca i64, align 8
  %3 = alloca i64, align 8
  %4 = alloca i64, align 8
  %5 = alloca i64, align 8
  store i64 %0, ptr %2, align 8, !tbaa !10
  call void @llvm.lifetime.start.p0(i64 8, ptr %3) #15
  %6 = load i64, ptr %2, align 8, !tbaa !10
  store i64 %6, ptr %3, align 8, !tbaa !10
  call void @llvm.lifetime.start.p0(i64 8, ptr %4) #15
  %7 = load i64, ptr %3, align 8, !tbaa !10
  %8 = ashr i64 %7, 1
  store i64 %8, ptr %4, align 8, !tbaa !10
  call void @llvm.lifetime.start.p0(i64 8, ptr %5) #15
  %9 = load i64, ptr %4, align 8, !tbaa !10
  store i64 %9, ptr %5, align 8, !tbaa !10
  %10 = load i64, ptr %5, align 8, !tbaa !10
  call void @llvm.lifetime.end.p0(i64 8, ptr %5) #15
  call void @llvm.lifetime.end.p0(i64 8, ptr %4) #15
  call void @llvm.lifetime.end.p0(i64 8, ptr %3) #15
  ret i64 %10
}

; Function Attrs: inlinehint nounwind sspstrong willreturn memory(none) uwtable
define internal zeroext i1 @rbimpl_right_shift_is_arithmetic_p() #8 {
  ret i1 true
}

; Function Attrs: inlinehint nounwind sspstrong willreturn memory(none) uwtable
define internal i64 @rb_fix2long(i64 noundef %0) #8 {
  %2 = alloca i64, align 8
  %3 = alloca i64, align 8
  store i64 %0, ptr %3, align 8, !tbaa !10
  %4 = call zeroext i1 @rbimpl_right_shift_is_arithmetic_p() #19
  br i1 %4, label %5, label %8

5:                                                ; preds = %1
  %6 = load i64, ptr %3, align 8, !tbaa !10
  %7 = call i64 @rbimpl_fix2long_by_shift(i64 noundef %6) #19
  store i64 %7, ptr %2, align 8
  br label %11

8:                                                ; preds = %1
  %9 = load i64, ptr %3, align 8, !tbaa !10
  %10 = call i64 @rbimpl_fix2long_by_idiv(i64 noundef %9) #19
  store i64 %10, ptr %2, align 8
  br label %11

11:                                               ; preds = %8, %5
  %12 = load i64, ptr %2, align 8
  ret i64 %12
}

; Function Attrs: inlinehint nounwind sspstrong willreturn memory(none) uwtable
define internal zeroext i1 @RB_FIXNUM_P(i64 noundef %0) #8 {
  %2 = alloca i64, align 8
  store i64 %0, ptr %2, align 8, !tbaa !10
  %3 = load i64, ptr %2, align 8, !tbaa !10
  %4 = and i64 %3, 1
  %5 = icmp ne i64 %4, 0
  ret i1 %5
}

; Function Attrs: inlinehint nounwind sspstrong willreturn memory(read) uwtable
define internal i64 @rb_intern_const(ptr noundef nonnull %0) #5 {
  %2 = alloca ptr, align 8
  %3 = alloca i64, align 8
  store ptr %0, ptr %2, align 8, !tbaa !22
  call void @llvm.lifetime.start.p0(i64 8, ptr %3) #15
  %4 = load ptr, ptr %2, align 8, !tbaa !22
  %5 = call i64 @strlen(ptr noundef %4) #18
  store i64 %5, ptr %3, align 8, !tbaa !10
  %6 = load ptr, ptr %2, align 8, !tbaa !22
  %7 = load i64, ptr %3, align 8, !tbaa !10
  %8 = call i64 @rb_intern2(ptr noundef %6, i64 noundef %7)
  call void @llvm.lifetime.end.p0(i64 8, ptr %3) #15
  ret i64 %8
}

; Function Attrs: inlinehint nounwind sspstrong uwtable
define internal i64 @rb_num2long_inline(i64 noundef %0) #4 {
  %2 = alloca i64, align 8
  %3 = alloca i64, align 8
  store i64 %0, ptr %3, align 8, !tbaa !10
  %4 = load i64, ptr %3, align 8, !tbaa !10
  %5 = call zeroext i1 @RB_FIXNUM_P(i64 noundef %4) #19
  br i1 %5, label %6, label %9

6:                                                ; preds = %1
  %7 = load i64, ptr %3, align 8, !tbaa !10
  %8 = call i64 @rb_fix2long(i64 noundef %7) #19
  store i64 %8, ptr %2, align 8
  br label %12

9:                                                ; preds = %1
  %10 = load i64, ptr %3, align 8, !tbaa !10
  %11 = call i64 @rb_num2long(i64 noundef %10)
  store i64 %11, ptr %2, align 8
  br label %12

12:                                               ; preds = %9, %6
  %13 = load i64, ptr %2, align 8
  ret i64 %13
}

; Function Attrs: inlinehint nounwind sspstrong memory(argmem: readwrite, inaccessiblemem: readwrite) uwtable
define internal i64 @rbimpl_intern_const(ptr noundef nonnull %0, ptr noundef nonnull %1) #11 {
  %3 = alloca ptr, align 8
  %4 = alloca ptr, align 8
  store ptr %0, ptr %3, align 8, !tbaa !27
  store ptr %1, ptr %4, align 8, !tbaa !22
  br label %5

5:                                                ; preds = %10, %2
  %6 = load ptr, ptr %3, align 8, !tbaa !27
  %7 = load i64, ptr %6, align 8, !tbaa !10
  %8 = icmp ne i64 %7, 0
  %9 = xor i1 %8, true
  br i1 %9, label %10, label %14

10:                                               ; preds = %5
  %11 = load ptr, ptr %4, align 8, !tbaa !22
  %12 = call i64 @rb_intern_const(ptr noundef %11) #18
  %13 = load ptr, ptr %3, align 8, !tbaa !27
  store i64 %12, ptr %13, align 8, !tbaa !10
  br label %5, !llvm.loop !29

14:                                               ; preds = %5
  %15 = load ptr, ptr %3, align 8, !tbaa !27
  %16 = load i64, ptr %15, align 8, !tbaa !10
  ret i64 %16
}

; Function Attrs: nounwind sspstrong uwtable
define internal i64 @ossl_ssl_session_set_time(i64 noundef %0, i64 noundef %1) #0 {
  %3 = alloca i64, align 8
  %4 = alloca i64, align 8
  %5 = alloca ptr, align 8
  %6 = alloca i64, align 8
  %7 = alloca i64, align 8
  store i64 %0, ptr %3, align 8, !tbaa !10
  store i64 %1, ptr %4, align 8, !tbaa !10
  call void @llvm.lifetime.start.p0(i64 8, ptr %5) #15
  call void @llvm.lifetime.start.p0(i64 8, ptr %6) #15
  br label %8

8:                                                ; preds = %2
  %9 = load i64, ptr %3, align 8, !tbaa !10
  %10 = call ptr @rb_check_typeddata(i64 noundef %9, ptr noundef @ossl_ssl_session_type)
  store ptr %10, ptr %5, align 8, !tbaa !18
  %11 = load ptr, ptr %5, align 8, !tbaa !18
  %12 = icmp ne ptr %11, null
  br i1 %12, label %15, label %13

13:                                               ; preds = %8
  %14 = load i64, ptr @rb_eRuntimeError, align 8, !tbaa !10
  call void (i64, ptr, ...) @ossl_raise(i64 noundef %14, ptr noundef @.str.18) #16
  unreachable

15:                                               ; preds = %8
  br label %16

16:                                               ; preds = %15
  br label %17

17:                                               ; preds = %16
  %18 = load i64, ptr %4, align 8, !tbaa !10
  %19 = load i64, ptr @rb_cTime, align 8, !tbaa !10
  %20 = call i64 @rb_obj_is_instance_of(i64 noundef %18, i64 noundef %19)
  %21 = icmp ne i64 %20, 0
  br i1 %21, label %22, label %27

22:                                               ; preds = %17
  %23 = load i64, ptr %4, align 8, !tbaa !10
  %24 = call i64 @rbimpl_intern_const(ptr noundef @ossl_ssl_session_set_time.rbimpl_id, ptr noundef @.str.21) #17
  store i64 %24, ptr %7, align 8, !tbaa !10
  %25 = load i64, ptr %7, align 8, !tbaa !10
  %26 = call i64 (i64, i64, i32, ...) @rb_funcall(i64 noundef %23, i64 noundef %25, i32 noundef 0)
  store i64 %26, ptr %4, align 8, !tbaa !10
  br label %27

27:                                               ; preds = %22, %17
  %28 = load i64, ptr %4, align 8, !tbaa !10
  %29 = call i64 @rb_num2long_inline(i64 noundef %28)
  store i64 %29, ptr %6, align 8, !tbaa !10
  %30 = load ptr, ptr %5, align 8, !tbaa !18
  %31 = load i64, ptr %6, align 8, !tbaa !10
  %32 = call i64 @SSL_SESSION_set_time(ptr noundef %30, i64 noundef %31)
  %33 = load i64, ptr %3, align 8, !tbaa !10
  %34 = call i64 @ossl_ssl_session_get_time(i64 noundef %33)
  call void @llvm.lifetime.end.p0(i64 8, ptr %6) #15
  call void @llvm.lifetime.end.p0(i64 8, ptr %5) #15
  ret i64 %34
}