; Function Attrs: nounwind sspstrong uwtable
define internal i64 @ossl_ssl_session_set_time(i64 noundef %0, i64 noundef %1) #0 {
  %3 = tail call ptr @rb_check_typeddata(i64 noundef %0, ptr noundef nonnull @ossl_ssl_session_type) #4
  %.not = icmp eq ptr %3, null
  br i1 %.not, label %4, label %6

4:                                                ; preds = %2
  %5 = load i64, ptr @rb_eRuntimeError, align 8, !tbaa !6
  tail call void (i64, ptr, ...) @ossl_raise(i64 noundef %5, ptr noundef nonnull @.str.18) #5
  unreachable

6:                                                ; preds = %2
  %7 = load i64, ptr @rb_cTime, align 8, !tbaa !6
  %8 = tail call i64 @rb_obj_is_instance_of(i64 noundef %1, i64 noundef %7) #4
  %.not9 = icmp eq i64 %8, 0
  br i1 %.not9, label %12, label %9

9:                                                ; preds = %6
  %.pr.i = load i64, ptr @ossl_ssl_session_set_time.rbimpl_id, align 8, !tbaa !6
  %.not4.i = icmp eq i64 %.pr.i, 0
  br i1 %.not4.i, label %.lr.ph.i, label %rbimpl_intern_const.exit

.lr.ph.i:                                         ; preds = %9, %.lr.ph.i
  %10 = tail call i64 @rb_intern2(ptr noundef nonnull @.str.21, i64 noundef 4) #4
  store i64 %10, ptr @ossl_ssl_session_set_time.rbimpl_id, align 8, !tbaa !6
  %.not.i = icmp eq i64 %10, 0
  br i1 %.not.i, label %.lr.ph.i, label %rbimpl_intern_const.exit, !llvm.loop !21

rbimpl_intern_const.exit:                         ; preds = %.lr.ph.i, %9
  %.lcssa.i = phi i64 [ %.pr.i, %9 ], [ %10, %.lr.ph.i ]
  %11 = tail call i64 (i64, i64, i32, ...) @rb_funcall(i64 noundef %1, i64 noundef %.lcssa.i, i32 noundef 0) #4
  br label %12

12:                                               ; preds = %rbimpl_intern_const.exit, %6
  %.0 = phi i64 [ %11, %rbimpl_intern_const.exit ], [ %1, %6 ]
  %13 = and i64 %.0, 1
  %.not.i10 = icmp eq i64 %13, 0
  br i1 %.not.i10, label %16, label %14

14:                                               ; preds = %12
  %15 = ashr i64 %.0, 1
  br label %rb_num2long_inline.exit

16:                                               ; preds = %12
  %17 = tail call i64 @rb_num2long(i64 noundef %.0) #4
  br label %rb_num2long_inline.exit

rb_num2long_inline.exit:                          ; preds = %14, %16
  %.0.i = phi i64 [ %15, %14 ], [ %17, %16 ]
  %18 = tail call i64 @SSL_SESSION_set_time(ptr noundef nonnull %3, i64 noundef %.0.i) #4
  %19 = tail call i64 @ossl_ssl_session_get_time(i64 noundef %0)
  ret i64 %19
}